(dp0
cnumpy.core.multiarray
scalar
p1
(cnumpy
dtype
p2
(S'i8'
p3
I0
I1
tp4
Rp5
(I3
S'<'
p6
NNNI-1
I-1
I0
tp7
bS'\x00\xb6k\x01\x00\x00\x00\x00'
p8
tp9
Rp10
(lp11
S'C:\\Users\\Sarah\\Documents\\Personal Content\\Lab_study_data\\parsed log data\\parsed_7a95ceca-40b6-4d54-99f4-6bec8f161524\\dream_table_capacitor-lab-basics_23836160_2017-01-17_11.22.49.txt'
p12
asg1
(g5
S'\x020\xb1\x00\x00\x00\x00\x00'
p13
tp14
Rp15
(lp16
S'C:\\Users\\Sarah\\Documents\\Personal Content\\Lab_study_data\\parsed log data\\parsed_7a95ceca-40b6-4d54-99f4-6bec8f161524\\dream_table_capacitor-lab-basics_11612162_2017-01-17_11.22.57.txt'
p17
asg1
(g5
S'\x06p\xd0\x00\x00\x00\x00\x00'
p18
tp19
Rp20
(lp21
S'C:\\Users\\Sarah\\Documents\\Personal Content\\Lab_study_data\\parsed log data\\parsed_7a95ceca-40b6-4d54-99f4-6bec8f161524\\dream_table_capacitor-lab-basics_13660166_2017-03-28_16.20.11.txt'
p22
asg1
(g5
S'\x0b\x10\x80\x02\x00\x00\x00\x00'
p23
tp24
Rp25
(lp26
S'C:\\Users\\Sarah\\Documents\\Personal Content\\Lab_study_data\\parsed log data\\parsed_7a95ceca-40b6-4d54-99f4-6bec8f161524\\dream_table_capacitor-lab-basics_41947147_2017-01-17_11.22.57.txt'
p27
asg1
(g5
S'\x02r\xa6\x00\x00\x00\x00\x00'
p28
tp29
Rp30
(lp31
S'C:\\Users\\Sarah\\Documents\\Personal Content\\Lab_study_data\\parsed log data\\parsed_7a95ceca-40b6-4d54-99f4-6bec8f161524\\dream_table_capacitor-lab-basics_10908162_2017-01-20_12.18.24.txt'
p32
asg1
(g5
S'\x0f\xa8\xd0\x03\x00\x00\x00\x00'
p33
tp34
Rp35
(lp36
S'C:\\Users\\Sarah\\Documents\\Personal Content\\Lab_study_data\\parsed log data\\parsed_7a95ceca-40b6-4d54-99f4-6bec8f161524\\dream_table_capacitor-lab-basics_64006159_2017-01-17_12.17.34.txt'
p37
asg1
(g5
S'\x11Z+\x01\x00\x00\x00\x00'
p38
tp39
Rp40
(lp41
S'C:\\Users\\Sarah\\Documents\\Personal Content\\Lab_study_data\\parsed log data\\parsed_7a95ceca-40b6-4d54-99f4-6bec8f161524\\dream_table_capacitor-lab-basics_19618321_2017-03-22_16.24.44.txt'
p42
asg1
(g5
S'Y\xe5\xc1\x00\x00\x00\x00\x00'
p43
tp44
Rp45
(lp46
S'C:\\Users\\Sarah\\Documents\\Personal Content\\Lab_study_data\\parsed log data\\parsed_7a95ceca-40b6-4d54-99f4-6bec8f161524\\dream_table_capacitor-lab-basics_12707161_2017-01-19_13.25.39.txt'
p47
asg1
(g5
S'\x1f\xf6\x1e\x05\x00\x00\x00\x00'
p48
tp49
Rp50
(lp51
S'C:\\Users\\Sarah\\Documents\\Personal Content\\Lab_study_data\\parsed log data\\parsed_7a95ceca-40b6-4d54-99f4-6bec8f161524\\dream_table_capacitor-lab-basics_85915167_2017-01-17_11.22.54.txt'
p52
asg1
(g5
S'!\xf2\r\x01\x00\x00\x00\x00'
p53
tp54
Rp55
(lp56
S'C:\\Users\\Sarah\\Documents\\Personal Content\\Lab_study_data\\parsed log data\\parsed_7a95ceca-40b6-4d54-99f4-6bec8f161524\\dream_table_capacitor-lab-basics_17691169_2017-03-20_16.24.22.txt'
p57
asg1
(g5
S'%\x9e\xff\x00\x00\x00\x00\x00'
p58
tp59
Rp60
(lp61
S'C:\\Users\\Sarah\\Documents\\Personal Content\\Lab_study_data\\parsed log data\\parsed_7a95ceca-40b6-4d54-99f4-6bec8f161524\\dream_table_capacitor-lab-basics_16752165_2017-01-19_14.21.30.txt'
p62
asg1
(g5
S'(P\xf0\x00\x00\x00\x00\x00'
p63
tp64
Rp65
(lp66
S'C:\\Users\\Sarah\\Documents\\Personal Content\\Lab_study_data\\parsed log data\\parsed_7a95ceca-40b6-4d54-99f4-6bec8f161524\\dream_table_capacitor-lab-basics_15749160_2017-03-23_13.25.52.txt'
p67
asg1
(g5
S'*\xe4\x01\x01\x00\x00\x00\x00'
p68
tp69
Rp70
(lp71
S'C:\\Users\\Sarah\\Documents\\Personal Content\\Lab_study_data\\parsed log data\\parsed_7a95ceca-40b6-4d54-99f4-6bec8f161524\\dream_table_capacitor-lab-basics_16901162_2017-03-21_17.27.09.txt'
p72
asg1
(g5
S',$\x15\x03\x00\x00\x00\x00'
p73
tp74
Rp75
(lp76
S'C:\\Users\\Sarah\\Documents\\Personal Content\\Lab_study_data\\parsed log data\\parsed_7a95ceca-40b6-4d54-99f4-6bec8f161524\\dream_table_capacitor-lab-basics_51717164_2017-01-17_15.22.53.txt'
p77
asg1
(g5
S'0d\xa7\x00\x00\x00\x00\x00'
p78
tp79
Rp80
(lp81
S'C:\\Users\\Sarah\\Documents\\Personal Content\\Lab_study_data\\parsed log data\\parsed_7a95ceca-40b6-4d54-99f4-6bec8f161524\\dream_table_capacitor-lab-basics_10970160_2017-01-23_16.21.03.txt'
p82
asg1
(g5
S'1\x82\x03\x01\x00\x00\x00\x00'
p83
tp84
Rp85
(lp86
S'C:\\Users\\Sarah\\Documents\\Personal Content\\Lab_study_data\\parsed log data\\parsed_7a95ceca-40b6-4d54-99f4-6bec8f161524\\dream_table_capacitor-lab-basics_17007153_2017-01-27_14.24.57.txt'
p87
asg1
(g5
S'9$\x05\x01\x00\x00\x00\x00'
p88
tp89
Rp90
(lp91
S'C:\\Users\\Sarah\\Documents\\Personal Content\\Lab_study_data\\parsed log data\\parsed_7a95ceca-40b6-4d54-99f4-6bec8f161524\\dream_table_capacitor-lab-basics_17114169_2017-01-20_16.23.09.txt'
p92
asg1
(g5
S'?|\x04\x01\x00\x00\x00\x00'
p93
tp94
Rp95
(lp96
S'C:\\Users\\Sarah\\Documents\\Personal Content\\Lab_study_data\\parsed log data\\parsed_7a95ceca-40b6-4d54-99f4-6bec8f161524\\dream_table_capacitor-lab-basics_17071167_2017-01-19_14.21.48.txt'
p97
asg1
(g5
S'E\xd2-\x01\x00\x00\x00\x00'
p98
tp99
Rp100
(lp101
S'C:\\Users\\Sarah\\Documents\\Personal Content\\Lab_study_data\\parsed log data\\parsed_7a95ceca-40b6-4d54-99f4-6bec8f161524\\dream_table_capacitor-lab-basics_19780165_2017-01-19_10.24.05.txt'
p102
asg1
(g5
S'G\xe2T\x01\x00\x00\x00\x00'
p103
tp104
Rp105
(lp106
S'C:\\Users\\Sarah\\Documents\\Personal Content\\Lab_study_data\\parsed log data\\parsed_7a95ceca-40b6-4d54-99f4-6bec8f161524\\dream_table_capacitor-lab-basics_22340167_2017-01-17_15.22.52.txt'
p107
asg1
(g5
S'1\x19\x0e\x01\x00\x00\x00\x00'
p108
tp109
Rp110
(lp111
S'C:\\Users\\Sarah\\Documents\\Personal Content\\Lab_study_data\\parsed log data\\parsed_7a95ceca-40b6-4d54-99f4-6bec8f161524\\dream_table_capacitor-lab-basics_17701169_2017-03-21_18.25.36.txt'
p112
asg1
(g5
S'I\x1c\x05\x01\x00\x00\x00\x00'
p113
tp114
Rp115
(lp116
S'C:\\Users\\Sarah\\Documents\\Personal Content\\Lab_study_data\\parsed log data\\parsed_7a95ceca-40b6-4d54-99f4-6bec8f161524\\dream_table_capacitor-lab-basics_17112137_2017-03-23_13.25.51.txt'
p117
asg1
(g5
S'N\x06\xb6\x00\x00\x00\x00\x00'
p118
tp119
Rp120
(lp121
S'C:\\Users\\Sarah\\Documents\\Personal Content\\Lab_study_data\\parsed log data\\parsed_7a95ceca-40b6-4d54-99f4-6bec8f161524\\dream_table_capacitor-lab-basics_11929166_2017-01-17_11.22.52.txt'
p122
asg1
(g5
S'\r^\xb7\x00\x00\x00\x00\x00'
p123
tp124
Rp125
(lp126
S'C:\\Users\\Sarah\\Documents\\Personal Content\\Lab_study_data\\parsed log data\\parsed_7a95ceca-40b6-4d54-99f4-6bec8f161524\\dream_table_capacitor-lab-basics_12017165_2017-03-22_15.28.37.txt'
p127
asg1
(g5
S'X\x8e*\x01\x00\x00\x00\x00'
p128
tp129
Rp130
(lp131
S'C:\\Users\\Sarah\\Documents\\Personal Content\\Lab_study_data\\parsed log data\\parsed_7a95ceca-40b6-4d54-99f4-6bec8f161524\\dream_table_capacitor-lab-basics_19566168_2017-01-27_14.24.55.txt'
p132
asg1
(g5
S'Z2+\x01\x00\x00\x00\x00'
p133
tp134
Rp135
(lp136
S'C:\\Users\\Sarah\\Documents\\Personal Content\\Lab_study_data\\parsed log data\\parsed_7a95ceca-40b6-4d54-99f4-6bec8f161524\\dream_table_capacitor-lab-basics_19608154_2017-01-27_13.27.17.txt'
p137
asg1
(g5
S'[\xb2\x08\x01\x00\x00\x00\x00'
p138
tp139
Rp140
(lp141
S'C:\\Users\\Sarah\\Documents\\Personal Content\\Lab_study_data\\parsed log data\\parsed_7a95ceca-40b6-4d54-99f4-6bec8f161524\\dream_table_capacitor-lab-basics_17347163_2017-03-21_17.28.21.txt'
p142
asg1
(g5
S'`D(\x01\x00\x00\x00\x00'
p143
tp144
Rp145
(lp146
S'C:\\Users\\Sarah\\Documents\\Personal Content\\Lab_study_data\\parsed log data\\parsed_7a95ceca-40b6-4d54-99f4-6bec8f161524\\dream_table_capacitor-lab-basics_19416160_2017-03-20_15.32.44.txt'
p147
asg1
(g5
S'f:\xc8\x00\x00\x00\x00\x00'
p148
tp149
Rp150
(lp151
S'C:\\Users\\Sarah\\Documents\\Personal Content\\Lab_study_data\\parsed log data\\parsed_7a95ceca-40b6-4d54-99f4-6bec8f161524\\dream_table_capacitor-lab-basics_13122150_2017-01-27_14.25.22.txt'
p152
asg1
(g5
S'i\xba"\x01\x00\x00\x00\x00'
p153
tp154
Rp155
(lp156
S'C:\\Users\\Sarah\\Documents\\Personal Content\\Lab_study_data\\parsed log data\\parsed_7a95ceca-40b6-4d54-99f4-6bec8f161524\\dream_table_capacitor-lab-basics_19053161_2017-03-28_16.20.27.txt'
p157
asg1
(g5
S'j\xc2\xf7\x00\x00\x00\x00\x00'
p158
tp159
Rp160
(lp161
S'C:\\Users\\Sarah\\Documents\\Personal Content\\Lab_study_data\\parsed log data\\parsed_7a95ceca-40b6-4d54-99f4-6bec8f161524\\dream_table_capacitor-lab-basics_16237162_2017-01-20_12.18.27.txt'
p162
asg1
(g5
S'vn\xe9\x00\x00\x00\x00\x00'
p163
tp164
Rp165
(lp166
S'C:\\Users\\Sarah\\Documents\\Personal Content\\Lab_study_data\\parsed log data\\parsed_7a95ceca-40b6-4d54-99f4-6bec8f161524\\dream_table_capacitor-lab-basics_15298166_2017-01-27_14.24.55.txt'
p167
asg1
(g5
S'w\xdc\xad\x00\x00\x00\x00\x00'
p168
tp169
Rp170
(lp171
S'C:\\Users\\Sarah\\Documents\\Personal Content\\Lab_study_data\\parsed log data\\parsed_7a95ceca-40b6-4d54-99f4-6bec8f161524\\dream_table_capacitor-lab-basics_11394167_2017-03-21_18.25.37.txt'
p172
asg1
(g5
S'{\xba,\x03\x00\x00\x00\x00'
p173
tp174
Rp175
(lp176
S'C:\\Users\\Sarah\\Documents\\Personal Content\\Lab_study_data\\parsed log data\\parsed_7a95ceca-40b6-4d54-99f4-6bec8f161524\\dream_table_capacitor-lab-basics_53262971_2017-01-17_16.21.02.txt'
p177
asg1
(g5
S'|\xc0N\x05\x00\x00\x00\x00'
p178
tp179
Rp180
(lp181
S'C:\\Users\\Sarah\\Documents\\Personal Content\\Lab_study_data\\parsed log data\\parsed_7a95ceca-40b6-4d54-99f4-6bec8f161524\\dream_table_capacitor-lab-basics_89047164_2017-01-17_16.20.58.txt'
p182
asg1
(g5
S'jL\xa9\x00\x00\x00\x00\x00'
p183
tp184
Rp185
(lp186
S'C:\\Users\\Sarah\\Documents\\Personal Content\\Lab_study_data\\parsed log data\\parsed_7a95ceca-40b6-4d54-99f4-6bec8f161524\\dream_table_capacitor-lab-basics_11095146_2017-01-20_15.25.06.txt'
p187
asg1
(g5
S'\x80\xce\x02\x01\x00\x00\x00\x00'
p188
tp189
Rp190
(lp191
S'C:\\Users\\Sarah\\Documents\\Personal Content\\Lab_study_data\\parsed log data\\parsed_7a95ceca-40b6-4d54-99f4-6bec8f161524\\dream_table_capacitor-lab-basics_16961152_2017-03-21_17.28.37.txt'
p192
asg1
(g5
S'\x82\x92(\x01\x00\x00\x00\x00'
p193
tp194
Rp195
(lp196
S'C:\\Users\\Sarah\\Documents\\Personal Content\\Lab_study_data\\parsed log data\\parsed_7a95ceca-40b6-4d54-99f4-6bec8f161524\\dream_table_capacitor-lab-basics_19436162_2017-03-22_16.25.05.txt'
p197
asg1
(g5
S'\x83B\xe2\x00\x00\x00\x00\x00'
p198
tp199
Rp200
(lp201
S'C:\\Users\\Sarah\\Documents\\Personal Content\\Lab_study_data\\parsed log data\\parsed_7a95ceca-40b6-4d54-99f4-6bec8f161524\\dream_table_capacitor-lab-basics_14828163_2017-01-27_13.27.15.txt'
p202
asg1
(g5
S'\x84\xd8\xc9\x00\x00\x00\x00\x00'
p203
tp204
Rp205
(lp206
S'C:\\Users\\Sarah\\Documents\\Personal Content\\Lab_study_data\\parsed log data\\parsed_7a95ceca-40b6-4d54-99f4-6bec8f161524\\dream_table_capacitor-lab-basics_13228164_2017-01-19_14.21.35.txt'
p207
asg1
(g5
S'\x8a\x86\x0e\x01\x00\x00\x00\x00'
p208
tp209
Rp210
(lp211
S'C:\\Users\\Sarah\\Documents\\Personal Content\\Lab_study_data\\parsed log data\\parsed_7a95ceca-40b6-4d54-99f4-6bec8f161524\\dream_table_capacitor-lab-basics_17729162_2017-01-19_13.25.33.txt'
p212
asg1
(g5
S'\x8b\xb4\xb3\x00\x00\x00\x00\x00'
p213
tp214
Rp215
(lp216
S'C:\\Users\\Sarah\\Documents\\Personal Content\\Lab_study_data\\parsed log data\\parsed_7a95ceca-40b6-4d54-99f4-6bec8f161524\\dream_table_capacitor-lab-basics_11777163_2017-03-21_17.28.21.txt'
p217
asg1
(g5
S'\x8c&\xa1\x00\x00\x00\x00\x00'
p218
tp219
Rp220
(lp221
S'C:\\Users\\Sarah\\Documents\\Personal Content\\Lab_study_data\\parsed log data\\parsed_7a95ceca-40b6-4d54-99f4-6bec8f161524\\dream_table_capacitor-lab-basics_10561164_2017-01-19_13.26.40.txt'
p222
asg1
(g5
S'\x8d\xf2\xc4\x00\x00\x00\x00\x00'
p223
tp224
Rp225
(lp226
S'C:\\Users\\Sarah\\Documents\\Personal Content\\Lab_study_data\\parsed log data\\parsed_7a95ceca-40b6-4d54-99f4-6bec8f161524\\dream_table_capacitor-lab-basics_12907149_2017-03-21_18.25.15.txt'
p227
asg1
(g5
S'\x97X\xd0\x00\x00\x00\x00\x00'
p228
tp229
Rp230
(lp231
S'C:\\Users\\Sarah\\Documents\\Personal Content\\Lab_study_data\\parsed log data\\parsed_7a95ceca-40b6-4d54-99f4-6bec8f161524\\dream_table_capacitor-lab-basics_13654167_2017-01-20_12.18.27.txt'
p232
asg1
(g5
S'\x9c\xec*\x05\x00\x00\x00\x00'
p233
tp234
Rp235
(lp236
S'C:\\Users\\Sarah\\Documents\\Personal Content\\Lab_study_data\\parsed log data\\parsed_7a95ceca-40b6-4d54-99f4-6bec8f161524\\dream_table_capacitor-lab-basics_86699164_2017-01-17_16.20.58.txt'
p237
asg1
(g5
S'\xa0\x021\x01\x00\x00\x00\x00'
p238
tp239
Rp240
(lp241
S'C:\\Users\\Sarah\\Documents\\Personal Content\\Lab_study_data\\parsed log data\\parsed_7a95ceca-40b6-4d54-99f4-6bec8f161524\\dream_table_capacitor-lab-basics_19989152_2017-03-20_16.24.12.txt'
p242
asg1
(g5
S'\xa6~*\x01\x00\x00\x00\x00'
p243
tp244
Rp245
(lp246
S'C:\\Users\\Sarah\\Documents\\Personal Content\\Lab_study_data\\parsed log data\\parsed_7a95ceca-40b6-4d54-99f4-6bec8f161524\\dream_table_capacitor-lab-basics_19562150_2017-01-19_14.21.54.txt'
p247
asg1
(g5
S'\xa7\xba \x01\x00\x00\x00\x00'
p248
tp249
Rp250
(lp251
S'C:\\Users\\Sarah\\Documents\\Personal Content\\Lab_study_data\\parsed log data\\parsed_7a95ceca-40b6-4d54-99f4-6bec8f161524\\dream_table_capacitor-lab-basics_18922151_2017-01-19_14.21.55.txt'
p252
asg1
(g5
S'\xaa\x18\xda\x00\x00\x00\x00\x00'
p253
tp254
Rp255
(lp256
S'C:\\Users\\Sarah\\Documents\\Personal Content\\Lab_study_data\\parsed log data\\parsed_7a95ceca-40b6-4d54-99f4-6bec8f161524\\dream_table_capacitor-lab-basics_14293162_2017-01-19_14.21.57.txt'
p257
asg1
(g5
S'\xb1\xe8\xe1\x00\x00\x00\x00\x00'
p258
tp259
Rp260
(lp261
S'C:\\Users\\Sarah\\Documents\\Personal Content\\Lab_study_data\\parsed log data\\parsed_7a95ceca-40b6-4d54-99f4-6bec8f161524\\dream_table_capacitor-lab-basics_14805169_2017-01-27_14.25.02.txt'
p262
asg1
(g5
S'\xb3\x92\xfd\x00\x00\x00\x00\x00'
p263
tp264
Rp265
(lp266
S'C:\\Users\\Sarah\\Documents\\Personal Content\\Lab_study_data\\parsed log data\\parsed_7a95ceca-40b6-4d54-99f4-6bec8f161524\\dream_table_capacitor-lab-basics_16618163_2017-01-20_11.23.12.txt'
p267
asg1
(g5
S'\xb8d\xa3\x00\x00\x00\x00\x00'
p268
tp269
Rp270
(lp271
S'C:\\Users\\Sarah\\Documents\\Personal Content\\Lab_study_data\\parsed log data\\parsed_7a95ceca-40b6-4d54-99f4-6bec8f161524\\dream_table_capacitor-lab-basics_10708152_2017-03-20_15.32.50.txt'
p272
asg1
(g5
S'\xbb\x02v\x01\x00\x00\x00\x00'
p273
tp274
Rp275
(lp276
S'C:\\Users\\Sarah\\Documents\\Personal Content\\Lab_study_data\\parsed log data\\parsed_7a95ceca-40b6-4d54-99f4-6bec8f161524\\dream_table_capacitor-lab-basics_24511163_2017-01-17_12.17.38.txt'
p277
asg1
(g5
S'\xcb\xb2\xf7\x00\x00\x00\x00\x00'
p278
tp279
Rp280
(lp281
S'C:\\Users\\Sarah\\Documents\\Personal Content\\Lab_study_data\\parsed log data\\parsed_7a95ceca-40b6-4d54-99f4-6bec8f161524\\dream_table_capacitor-lab-basics_16233163_2017-03-21_17.28.41.txt'
p282
asg1
(g5
S'\xc4\xa8\xeb\x00\x00\x00\x00\x00'
p283
tp284
Rp285
(lp286
S'C:\\Users\\Sarah\\Documents\\Personal Content\\Lab_study_data\\parsed log data\\parsed_7a95ceca-40b6-4d54-99f4-6bec8f161524\\dream_table_capacitor-lab-basics_15444164_2017-01-23_16.21.24.txt'
p287
asg1
(g5
S'\xc5\x80\xc8\x00\x00\x00\x00\x00'
p288
tp289
Rp290
(lp291
S'C:\\Users\\Sarah\\Documents\\Personal Content\\Lab_study_data\\parsed log data\\parsed_7a95ceca-40b6-4d54-99f4-6bec8f161524\\dream_table_capacitor-lab-basics_13140165_2017-03-21_17.28.29.txt'
p292
asg1
(g5
S'\xc7\xc0\xe7\x00\x00\x00\x00\x00'
p293
tp294
Rp295
(lp296
S'C:\\Users\\Sarah\\Documents\\Personal Content\\Lab_study_data\\parsed log data\\parsed_7a95ceca-40b6-4d54-99f4-6bec8f161524\\dream_table_capacitor-lab-basics_15188167_2017-01-27_14.25.05.txt'
p297
asg1
(g5
S'\xc8\xc8\xa0\x00\x00\x00\x00\x00'
p298
tp299
Rp300
(lp301
S'C:\\Users\\Sarah\\Documents\\Personal Content\\Lab_study_data\\parsed log data\\parsed_7a95ceca-40b6-4d54-99f4-6bec8f161524\\dream_table_capacitor-lab-basics_10537160_2017-03-21_17.28.33.txt'
p302
asg1
(g5
S'\xcaP\x15\x01\x00\x00\x00\x00'
p303
tp304
Rp305
(lp306
S'C:\\Users\\Sarah\\Documents\\Personal Content\\Lab_study_data\\parsed log data\\parsed_7a95ceca-40b6-4d54-99f4-6bec8f161524\\dream_table_capacitor-lab-basics_18174154_2017-03-20_15.32.54.txt'
p307
asg1
(g5
S'\xcb \xbc\x00\x00\x00\x00\x00'
p308
tp309
Rp310
(lp311
S'C:\\Users\\Sarah\\Documents\\Personal Content\\Lab_study_data\\parsed log data\\parsed_7a95ceca-40b6-4d54-99f4-6bec8f161524\\dream_table_capacitor-lab-basics_12329163_2017-01-20_11.22.59.txt'
p312
asg1
(g5
S'\xcc0\x0c\x01\x00\x00\x00\x00'
p313
tp314
Rp315
(lp316
S'C:\\Users\\Sarah\\Documents\\Personal Content\\Lab_study_data\\parsed log data\\parsed_7a95ceca-40b6-4d54-99f4-6bec8f161524\\dream_table_capacitor-lab-basics_17576140_2017-03-22_16.25.06.txt'
p317
asg1
(g5
S'\xd1\xf8\x05\x01\x00\x00\x00\x00'
p318
tp319
Rp320
(lp321
S'C:\\Users\\Sarah\\Documents\\Personal Content\\Lab_study_data\\parsed log data\\parsed_7a95ceca-40b6-4d54-99f4-6bec8f161524\\dream_table_capacitor-lab-basics_17168593_2017-03-21_17.28.46.txt'
p322
asg1
(g5
S'\xda|\xc8\x00\x00\x00\x00\x00'
p323
tp324
Rp325
(lp326
S'C:\\Users\\Sarah\\Documents\\Personal Content\\Lab_study_data\\parsed log data\\parsed_7a95ceca-40b6-4d54-99f4-6bec8f161524\\dream_table_capacitor-lab-basics_13139162_2017-01-27_14.25.11.txt'
p327
asg1
(g5
S'\xdbv\xd6\x00\x00\x00\x00\x00'
p328
tp329
Rp330
(lp331
S'C:\\Users\\Sarah\\Documents\\Personal Content\\Lab_study_data\\parsed log data\\parsed_7a95ceca-40b6-4d54-99f4-6bec8f161524\\dream_table_capacitor-lab-basics_14055131_2017-03-21_17.28.52.txt'
p332
asg1
(g5
S'\xde\x08\x05\x01\x00\x00\x00\x00'
p333
tp334
Rp335
(lp336
S'C:\\Users\\Sarah\\Documents\\Personal Content\\Lab_study_data\\parsed log data\\parsed_7a95ceca-40b6-4d54-99f4-6bec8f161524\\dream_table_capacitor-lab-basics_17107166_2017-01-20_16.23.10.txt'
p337
asg1
(g5
S'\xe2\xbe\x9b\x01\x00\x00\x00\x00'
p338
tp339
Rp340
(lp341
S'C:\\Users\\Sarah\\Documents\\Personal Content\\Lab_study_data\\parsed log data\\parsed_7a95ceca-40b6-4d54-99f4-6bec8f161524\\dream_table_capacitor-lab-basics_26984162_2017-01-17_15.22.51.txt'
p342
asg1
(g5
S'\xe5<\n\x01\x00\x00\x00\x00'
p343
tp344
Rp345
(lp346
S'C:\\Users\\Sarah\\Documents\\Personal Content\\Lab_study_data\\parsed log data\\parsed_7a95ceca-40b6-4d54-99f4-6bec8f161524\\dream_table_capacitor-lab-basics_17448165_2017-01-23_15.24.15.txt'
p347
asg1
(g5
S'\xe8\x82\x0c\x01\x00\x00\x00\x00'
p348
tp349
Rp350
(lp351
S'C:\\Users\\Sarah\\Documents\\Personal Content\\Lab_study_data\\parsed log data\\parsed_7a95ceca-40b6-4d54-99f4-6bec8f161524\\dream_table_capacitor-lab-basics_17597160_2017-01-20_16.23.01.txt'
p352
asg1
(g5
S'\xea:\x18\x01\x00\x00\x00\x00'
p353
tp354
Rp355
(lp356
S'C:\\Users\\Sarah\\Documents\\Personal Content\\Lab_study_data\\parsed log data\\parsed_7a95ceca-40b6-4d54-99f4-6bec8f161524\\dream_table_capacitor-lab-basics_18365162_2017-01-19_10.24.04.txt'
p357
asg1
(g5
S'\xee\xfa\xf8\x00\x00\x00\x00\x00'
p358
tp359
Rp360
(lp361
S'C:\\Users\\Sarah\\Documents\\Personal Content\\Lab_study_data\\parsed log data\\parsed_7a95ceca-40b6-4d54-99f4-6bec8f161524\\dream_table_capacitor-lab-basics_16317166_2017-03-21_18.24.57.txt'
p362
asg1
(g5
S'(\x85\x9b\x00\x00\x00\x00\x00'
p363
tp364
Rp365
(lp366
S'C:\\Users\\Sarah\\Documents\\Personal Content\\Lab_study_data\\parsed log data\\parsed_7a95ceca-40b6-4d54-99f4-6bec8f161524\\dream_table_capacitor-lab-basics_10192168_2017-01-20_15.25.22.txt'
p367
asg1
(g5
S'\xf2F#\x01\x00\x00\x00\x00'
p368
tp369
Rp370
(lp371
S'C:\\Users\\Sarah\\Documents\\Personal Content\\Lab_study_data\\parsed log data\\parsed_7a95ceca-40b6-4d54-99f4-6bec8f161524\\dream_table_capacitor-lab-basics_19089138_2017-01-23_16.21.28.txt'
p372
asg1
(g5
S'\xf4\x1e\xbb\x00\x00\x00\x00\x00'
p373
tp374
Rp375
(lp376
S'C:\\Users\\Sarah\\Documents\\Personal Content\\Lab_study_data\\parsed log data\\parsed_7a95ceca-40b6-4d54-99f4-6bec8f161524\\dream_table_capacitor-lab-basics_12263156_2017-01-20_16.23.01.txt'
p377
asg1
(g5
S'\xf8\xd2S\x03\x00\x00\x00\x00'
p378
tp379
Rp380
(lp381
S'C:\\Users\\Sarah\\Documents\\Personal Content\\Lab_study_data\\parsed log data\\parsed_7a95ceca-40b6-4d54-99f4-6bec8f161524\\dream_table_capacitor-lab-basics_55825144_2017-01-17_16.21.01.txt'
p382
asg1
(g5
S'\x02\xe9$\x01\x00\x00\x00\x00'
p383
tp384
Rp385
(lp386
S'C:\\Users\\Sarah\\Documents\\Personal Content\\Lab_study_data\\parsed log data\\parsed_7a95ceca-40b6-4d54-99f4-6bec8f161524\\dream_table_capacitor-lab-basics_19196162_2017-01-20_15.25.18.txt'
p387
asg1
(g5
S'\xd7q\xd1\x00\x00\x00\x00\x00'
p388
tp389
Rp390
(lp391
S'C:\\Users\\Sarah\\Documents\\Personal Content\\Lab_study_data\\parsed log data\\parsed_7a95ceca-40b6-4d54-99f4-6bec8f161524\\dream_table_capacitor-lab-basics_13726167_2017-01-19_14.21.53.txt'
p392
asg1
(g5
S'\r+\xfe\x00\x00\x00\x00\x00'
p393
tp394
Rp395
(lp396
S'C:\\Users\\Sarah\\Documents\\Personal Content\\Lab_study_data\\parsed log data\\parsed_7a95ceca-40b6-4d54-99f4-6bec8f161524\\dream_table_capacitor-lab-basics_16657165_2017-03-21_17.28.36.txt'
p397
asg1
(g5
S"\x0f+'\x01\x00\x00\x00\x00"
p398
tp399
Rp400
(lp401
S'C:\\Users\\Sarah\\Documents\\Personal Content\\Lab_study_data\\parsed log data\\parsed_7a95ceca-40b6-4d54-99f4-6bec8f161524\\dream_table_capacitor-lab-basics_19344143_2017-01-17_15.22.57.txt'
p402
asg1
(g5
S'\x19\xab\x04\x01\x00\x00\x00\x00'
p403
tp404
Rp405
(lp406
S'C:\\Users\\Sarah\\Documents\\Personal Content\\Lab_study_data\\parsed log data\\parsed_7a95ceca-40b6-4d54-99f4-6bec8f161524\\dream_table_capacitor-lab-basics_17083161_2017-01-20_15.24.54.txt'
p407
asg1
(g5
S'\xfdm\x16\x01\x00\x00\x00\x00'
p408
tp409
Rp410
(lp411
S'C:\\Users\\Sarah\\Documents\\Personal Content\\Lab_study_data\\parsed log data\\parsed_7a95ceca-40b6-4d54-99f4-6bec8f161524\\dream_table_capacitor-lab-basics_18247165_2017-01-17_15.22.56.txt'
p412
asg1
(g5
S'\x1c\xdf\xa2\x01\x00\x00\x00\x00'
p413
tp414
Rp415
(lp416
S'C:\\Users\\Sarah\\Documents\\Personal Content\\Lab_study_data\\parsed log data\\parsed_7a95ceca-40b6-4d54-99f4-6bec8f161524\\dream_table_capacitor-lab-basics_27451164_2017-01-17_12.17.36.txt'
p417
asg1
(g5
S'&S\xb5\x04\x00\x00\x00\x00'
p418
tp419
Rp420
(lp421
S'C:\\Users\\Sarah\\Documents\\Personal Content\\Lab_study_data\\parsed log data\\parsed_7a95ceca-40b6-4d54-99f4-6bec8f161524\\dream_table_capacitor-lab-basics_78992166_2017-01-17_16.21.03.txt'
p422
asg1
(g5
S'1\xa6\xd3\x00\x00\x00\x00\x00'
p423
tp424
Rp425
(lp426
S'C:\\Users\\Sarah\\Documents\\Personal Content\\Lab_study_data\\parsed log data\\parsed_7a95ceca-40b6-4d54-99f4-6bec8f161524\\dream_table_capacitor-lab-basics_13870641_2017-03-21_18.25.13.txt'
p427
asg1
(g5
S'(\x8f\xc3\x00\x00\x00\x00\x00'
p428
tp429
Rp430
(lp431
S'C:\\Users\\Sarah\\Documents\\Personal Content\\Lab_study_data\\parsed log data\\parsed_7a95ceca-40b6-4d54-99f4-6bec8f161524\\dream_table_capacitor-lab-basics_12816168_2017-03-21_17.28.40.txt'
p432
asg1
(g5
S'-\xad\x03\x01\x00\x00\x00\x00'
p433
tp434
Rp435
(lp436
S'C:\\Users\\Sarah\\Documents\\Personal Content\\Lab_study_data\\parsed log data\\parsed_7a95ceca-40b6-4d54-99f4-6bec8f161524\\dream_table_capacitor-lab-basics_17018157_2017-01-19_13.25.28.txt'
p437
asg1
(g5
S'1E"\x01\x00\x00\x00\x00'
p438
tp439
Rp440
(lp441
S'C:\\Users\\Sarah\\Documents\\Personal Content\\Lab_study_data\\parsed log data\\parsed_7a95ceca-40b6-4d54-99f4-6bec8f161524\\dream_table_capacitor-lab-basics_19023153_2017-01-27_13.27.03.txt'
p442
asg1
(g5
S';\x87\x9a\x00\x00\x00\x00\x00'
p443
tp444
Rp445
(lp446
S'C:\\Users\\Sarah\\Documents\\Personal Content\\Lab_study_data\\parsed log data\\parsed_7a95ceca-40b6-4d54-99f4-6bec8f161524\\dream_table_capacitor-lab-basics_10127163_2017-01-27_14.25.07.txt'
p447
asg1
(g5
S'?\xb1\xd8\x00\x00\x00\x00\x00'
p448
tp449
Rp450
(lp451
S'C:\\Users\\Sarah\\Documents\\Personal Content\\Lab_study_data\\parsed log data\\parsed_7a95ceca-40b6-4d54-99f4-6bec8f161524\\dream_table_capacitor-lab-basics_14201151_2017-01-27_14.25.33.txt'
p452
asg1
(g5
S'@\x1dd\x05\x00\x00\x00\x00'
p453
tp454
Rp455
(lp456
S'C:\\Users\\Sarah\\Documents\\Personal Content\\Lab_study_data\\parsed log data\\parsed_7a95ceca-40b6-4d54-99f4-6bec8f161524\\dream_table_capacitor-lab-basics_90447168_2017-01-17_12.17.41.txt'
p457
asg1
(g5
S'A\xb9\xe5\x00\x00\x00\x00\x00'
p458
tp459
Rp460
(lp461
S'C:\\Users\\Sarah\\Documents\\Personal Content\\Lab_study_data\\parsed log data\\parsed_7a95ceca-40b6-4d54-99f4-6bec8f161524\\dream_table_capacitor-lab-basics_15055169_2017-01-17_11.23.51.txt'
p462
asg1
(g5
S'\xe1\xfd\xc9\x02\x00\x00\x00\x00'
p463
tp464
Rp465
(lp466
S'C:\\Users\\Sarah\\Documents\\Personal Content\\Lab_study_data\\parsed log data\\parsed_7a95ceca-40b6-4d54-99f4-6bec8f161524\\dream_table_capacitor-lab-basics_46792161_2017-01-17_12.17.51.txt'
p467
asg1
(g5
S'H\xc9\xd4\x00\x00\x00\x00\x00'
p468
tp469
Rp470
(lp471
S'C:\\Users\\Sarah\\Documents\\Personal Content\\Lab_study_data\\parsed log data\\parsed_7a95ceca-40b6-4d54-99f4-6bec8f161524\\dream_table_capacitor-lab-basics_13945160_2017-03-21_17.28.27.txt'
p472
asg1
(g5
S'LA\xc1\x00\x00\x00\x00\x00'
p473
tp474
Rp475
(lp476
S'C:\\Users\\Sarah\\Documents\\Personal Content\\Lab_study_data\\parsed log data\\parsed_7a95ceca-40b6-4d54-99f4-6bec8f161524\\dream_table_capacitor-lab-basics_12665164_2017-03-21_18.25.09.txt'
p477
asg1
(g5
S'\x8d\x12/\x01\x00\x00\x00\x00'
p478
tp479
Rp480
(lp481
S'C:\\Users\\Sarah\\Documents\\Personal Content\\Lab_study_data\\parsed log data\\parsed_7a95ceca-40b6-4d54-99f4-6bec8f161524\\dream_table_capacitor-lab-basics_19862157_2017-01-20_15.24.54.txt'
p482
asg1
(g5
S'PI\xe5\x00\x00\x00\x00\x00'
p483
tp484
Rp485
(lp486
S'C:\\Users\\Sarah\\Documents\\Personal Content\\Lab_study_data\\parsed log data\\parsed_7a95ceca-40b6-4d54-99f4-6bec8f161524\\dream_table_capacitor-lab-basics_15026512_2017-03-20_15.32.46.txt'
p487
asg1
(g5
S'Q\xb7\xbb\x00\x00\x00\x00\x00'
p488
tp489
Rp490
(lp491
S'C:\\Users\\Sarah\\Documents\\Personal Content\\Lab_study_data\\parsed log data\\parsed_7a95ceca-40b6-4d54-99f4-6bec8f161524\\dream_table_capacitor-lab-basics_12302161_2017-01-20_15.25.00.txt'
p492
asg1
(g5
S'T\xbd\xba\x00\x00\x00\x00\x00'
p493
tp494
Rp495
(lp496
S'C:\\Users\\Sarah\\Documents\\Personal Content\\Lab_study_data\\parsed log data\\parsed_7a95ceca-40b6-4d54-99f4-6bec8f161524\\dream_table_capacitor-lab-basics_12238164_2017-01-20_15.24.52.txt'
p497
asg1
(g5
S'Ui\xc8\x00\x00\x00\x00\x00'
p498
tp499
Rp500
(lp501
S'C:\\Users\\Sarah\\Documents\\Personal Content\\Lab_study_data\\parsed log data\\parsed_7a95ceca-40b6-4d54-99f4-6bec8f161524\\dream_table_capacitor-lab-basics_13134165_2017-03-20_15.32.56.txt'
p502
asg1
(g5
S'Y\x17)\x01\x00\x00\x00\x00'
p503
tp504
Rp505
(lp506
S'C:\\Users\\Sarah\\Documents\\Personal Content\\Lab_study_data\\parsed log data\\parsed_7a95ceca-40b6-4d54-99f4-6bec8f161524\\dream_table_capacitor-lab-basics_19470169_2017-03-22_15.28.26.txt'
p507
asg1
(g5
S']\xed\x84\x03\x00\x00\x00\x00'
p508
tp509
Rp510
(lp511
S'C:\\Users\\Sarah\\Documents\\Personal Content\\Lab_study_data\\parsed log data\\parsed_7a95ceca-40b6-4d54-99f4-6bec8f161524\\dream_table_capacitor-lab-basics_59043165_2017-01-17_16.21.08.txt'
p512
asg1
(g5
S'`!\x9c\x00\x00\x00\x00\x00'
p513
tp514
Rp515
(lp516
S'C:\\Users\\Sarah\\Documents\\Personal Content\\Lab_study_data\\parsed log data\\parsed_7a95ceca-40b6-4d54-99f4-6bec8f161524\\dream_table_capacitor-lab-basics_10232160_2017-01-20_16.23.13.txt'
p517
asg1
(g5
S'dS\xe7\x00\x00\x00\x00\x00'
p518
tp519
Rp520
(lp521
S'C:\\Users\\Sarah\\Documents\\Personal Content\\Lab_study_data\\parsed log data\\parsed_7a95ceca-40b6-4d54-99f4-6bec8f161524\\dream_table_capacitor-lab-basics_15160164_2017-03-21_17.28.46.txt'
p522
asg1
(g5
S'\x91\xd9v\x01\x00\x00\x00\x00'
p523
tp524
Rp525
(lp526
S'C:\\Users\\Sarah\\Documents\\Personal Content\\Lab_study_data\\parsed log data\\parsed_7a95ceca-40b6-4d54-99f4-6bec8f161524\\dream_table_capacitor-lab-basics_24566161_2017-01-17_11.22.35.txt'
p527
asg1
(g5
S'i\xe3\xcf\x00\x00\x00\x00\x00'
p528
tp529
Rp530
(lp531
S'C:\\Users\\Sarah\\Documents\\Personal Content\\Lab_study_data\\parsed log data\\parsed_7a95ceca-40b6-4d54-99f4-6bec8f161524\\dream_table_capacitor-lab-basics_13624169_2017-01-20_16.23.16.txt'
p532
asg1
(g5
S'n\xdb\xeb\x00\x00\x00\x00\x00'
p533
tp534
Rp535
(lp536
S'C:\\Users\\Sarah\\Documents\\Personal Content\\Lab_study_data\\parsed log data\\parsed_7a95ceca-40b6-4d54-99f4-6bec8f161524\\dream_table_capacitor-lab-basics_15457134_2017-03-20_15.32.51.txt'
p537
asg1
(g5
S'q\xd3\xac\x00\x00\x00\x00\x00'
p538
tp539
Rp540
(lp541
S'C:\\Users\\Sarah\\Documents\\Personal Content\\Lab_study_data\\parsed log data\\parsed_7a95ceca-40b6-4d54-99f4-6bec8f161524\\dream_table_capacitor-lab-basics_11326321_2017-01-20_16.23.00.txt'
p542
asg1
(g5
S'r[*\x01\x00\x00\x00\x00'
p543
tp544
Rp545
(lp546
S'C:\\Users\\Sarah\\Documents\\Personal Content\\Lab_study_data\\parsed log data\\parsed_7a95ceca-40b6-4d54-99f4-6bec8f161524\\dream_table_capacitor-lab-basics_19553138_2017-01-20_11.23.01.txt'
p547
asg1
(g5
S'x\xa5\x97\x04\x00\x00\x00\x00'
p548
tp549
Rp550
(lp551
S'C:\\Users\\Sarah\\Documents\\Personal Content\\Lab_study_data\\parsed log data\\parsed_7a95ceca-40b6-4d54-99f4-6bec8f161524\\dream_table_capacitor-lab-basics_77047160_2017-01-17_12.17.34.txt'
p552
asg1
(g5
S'}e\r\x01\x00\x00\x00\x00'
p553
tp554
Rp555
(lp556
S'C:\\Users\\Sarah\\Documents\\Personal Content\\Lab_study_data\\parsed log data\\parsed_7a95ceca-40b6-4d54-99f4-6bec8f161524\\dream_table_capacitor-lab-basics_17655165_2017-03-28_15.29.17.txt'
p557
asg1
(g5
S'\x81_\xf2\x00\x00\x00\x00\x00'
p558
tp559
Rp560
(lp561
S'C:\\Users\\Sarah\\Documents\\Personal Content\\Lab_study_data\\parsed log data\\parsed_7a95ceca-40b6-4d54-99f4-6bec8f161524\\dream_table_capacitor-lab-basics_15884161_2017-03-23_14.25.10.txt'
p562
asg1
(g5
S'\x84\xf3\x03\x01\x00\x00\x00\x00'
p563
tp564
Rp565
(lp566
S'C:\\Users\\Sarah\\Documents\\Personal Content\\Lab_study_data\\parsed log data\\parsed_7a95ceca-40b6-4d54-99f4-6bec8f161524\\dream_table_capacitor-lab-basics_17036164_2017-01-20_11.23.12.txt'
p567
asg1
(g5
S'A?\xef\x04\x00\x00\x00\x00'
p568
tp569
Rp570
(lp571
S'C:\\Users\\Sarah\\Documents\\Personal Content\\Lab_study_data\\parsed log data\\parsed_7a95ceca-40b6-4d54-99f4-6bec8f161524\\dream_table_capacitor-lab-basics_82788161_2017-01-17_11.22.49.txt'
p572
asg1
(g5
S'\x88\xa5\x10\x01\x00\x00\x00\x00'
p573
tp574
Rp575
(lp576
S'C:\\Users\\Sarah\\Documents\\Personal Content\\Lab_study_data\\parsed log data\\parsed_7a95ceca-40b6-4d54-99f4-6bec8f161524\\dream_table_capacitor-lab-basics_17868168_2017-01-19_14.22.00.txt'
p577
asg1
(g5
S'\x91M\xbd\x00\x00\x00\x00\x00'
p578
tp579
Rp580
(lp581
S'C:\\Users\\Sarah\\Documents\\Personal Content\\Lab_study_data\\parsed log data\\parsed_7a95ceca-40b6-4d54-99f4-6bec8f161524\\dream_table_capacitor-lab-basics_12406161_2017-01-19_14.22.09.txt'
p582
asg1
(g5
S'\x9c\xf3&\x02\x00\x00\x00\x00'
p583
tp584
Rp585
(lp586
S'C:\\Users\\Sarah\\Documents\\Personal Content\\Lab_study_data\\parsed log data\\parsed_7a95ceca-40b6-4d54-99f4-6bec8f161524\\dream_table_capacitor-lab-basics_31607164_2017-01-17_16.21.12.txt'
p587
asg1
(g5
S'\xa0\xfb\xe5\x00\x00\x00\x00\x00'
p588
tp589
Rp590
(lp591
S'C:\\Users\\Sarah\\Documents\\Personal Content\\Lab_study_data\\parsed log data\\parsed_7a95ceca-40b6-4d54-99f4-6bec8f161524\\dream_table_capacitor-lab-basics_15072160_2017-01-19_14.21.47.txt'
p592
asg1
(g5
S'\xa1\x9b\x11\x01\x00\x00\x00\x00'
p593
tp594
Rp595
(lp596
S'C:\\Users\\Sarah\\Documents\\Personal Content\\Lab_study_data\\parsed log data\\parsed_7a95ceca-40b6-4d54-99f4-6bec8f161524\\dream_table_capacitor-lab-basics_17931169_2017-01-23_15.24.19.txt'
p597
asg1
(g5
S'\xa8\x87\x93\x03\x00\x00\x00\x00'
p598
tp599
Rp600
(lp601
S'C:\\Users\\Sarah\\Documents\\Personal Content\\Lab_study_data\\parsed log data\\parsed_7a95ceca-40b6-4d54-99f4-6bec8f161524\\dream_table_capacitor-lab-basics_60000168_2017-01-17_16.21.07.txt'
p602
asg1
(g5
S'\xaa/\xcf\x00\x00\x00\x00\x00'
p603
tp604
Rp605
(lp606
S'C:\\Users\\Sarah\\Documents\\Personal Content\\Lab_study_data\\parsed log data\\parsed_7a95ceca-40b6-4d54-99f4-6bec8f161524\\dream_table_capacitor-lab-basics_13578154_2017-03-22_15.28.46.txt'
p607
aS'C:\\Users\\Sarah\\Documents\\Personal Content\\Lab_study_data\\parsed log data\\parsed_7a95ceca-40b6-4d54-99f4-6bec8f161524\\dream_table_capacitor-lab-basics_13578154_2017-03-22_15.44.35.txt'
p608
asg1
(g5
S'\xad\x9b\xd9\x00\x00\x00\x00\x00'
p609
tp610
Rp611
(lp612
S'C:\\Users\\Sarah\\Documents\\Personal Content\\Lab_study_data\\parsed log data\\parsed_7a95ceca-40b6-4d54-99f4-6bec8f161524\\dream_table_capacitor-lab-basics_14261165_2017-03-21_17.28.37.txt'
p613
asg1
(g5
S'\xb51"\x01\x00\x00\x00\x00'
p614
tp615
Rp616
(lp617
S'C:\\Users\\Sarah\\Documents\\Personal Content\\Lab_study_data\\parsed log data\\parsed_7a95ceca-40b6-4d54-99f4-6bec8f161524\\dream_table_capacitor-lab-basics_19018165_2017-03-21_18.25.06.txt'
p618
asg1
(g5
S'\xba\xb3\x1a\x01\x00\x00\x00\x00'
p619
tp620
Rp621
(lp622
S'C:\\Users\\Sarah\\Documents\\Personal Content\\Lab_study_data\\parsed log data\\parsed_7a95ceca-40b6-4d54-99f4-6bec8f161524\\dream_table_capacitor-lab-basics_18527162_2017-03-20_15.33.07.txt'
p623
asg1
(g5
S'\xf5!\x15\x01\x00\x00\x00\x00'
p624
tp625
Rp626
(lp627
S'C:\\Users\\Sarah\\Documents\\Personal Content\\Lab_study_data\\parsed log data\\parsed_7a95ceca-40b6-4d54-99f4-6bec8f161524\\dream_table_capacitor-lab-basics_18162165_2017-01-20_12.19.00.txt'
p628
asg1
(g5
S'\xc0\xad\x1b\x01\x00\x00\x00\x00'
p629
tp630
Rp631
(lp632
S'C:\\Users\\Sarah\\Documents\\Personal Content\\Lab_study_data\\parsed log data\\parsed_7a95ceca-40b6-4d54-99f4-6bec8f161524\\dream_table_capacitor-lab-basics_18591168_2017-01-19_13.25.39.txt'
p633
asg1
(g5
S'\xc1\x93\xcc\x00\x00\x00\x00\x00'
p634
tp635
Rp636
(lp637
S'C:\\Users\\Sarah\\Documents\\Personal Content\\Lab_study_data\\parsed log data\\parsed_7a95ceca-40b6-4d54-99f4-6bec8f161524\\dream_table_capacitor-lab-basics_13407169_2017-03-21_17.28.43.txt'
p638
asg1
(g5
S'\xc7\xff\x9e\x00\x00\x00\x00\x00'
p639
tp640
Rp641
(lp642
S'C:\\Users\\Sarah\\Documents\\Personal Content\\Lab_study_data\\parsed log data\\parsed_7a95ceca-40b6-4d54-99f4-6bec8f161524\\dream_table_capacitor-lab-basics_10420167_2017-01-20_15.24.56.txt'
p643
asg1
(g5
S'\xc9u\xb5\x00\x00\x00\x00\x00'
p644
tp645
Rp646
(lp647
S'C:\\Users\\Sarah\\Documents\\Personal Content\\Lab_study_data\\parsed log data\\parsed_7a95ceca-40b6-4d54-99f4-6bec8f161524\\dream_table_capacitor-lab-basics_11892169_2017-01-23_16.21.13.txt'
p648
asg1
(g5
S'\xcd\xd9/\x01\x00\x00\x00\x00'
p649
tp650
Rp651
(lp652
S'C:\\Users\\Sarah\\Documents\\Personal Content\\Lab_study_data\\parsed log data\\parsed_7a95ceca-40b6-4d54-99f4-6bec8f161524\\dream_table_capacitor-lab-basics_19913165_2017-03-28_16.20.26.txt'
p653
asg1
(g5
S'\xceO\xc9\x00\x00\x00\x00\x00'
p654
tp655
Rp656
(lp657
S'C:\\Users\\Sarah\\Documents\\Personal Content\\Lab_study_data\\parsed log data\\parsed_7a95ceca-40b6-4d54-99f4-6bec8f161524\\dream_table_capacitor-lab-basics_13193166_2017-01-19_10.23.39.txt'
p658
asg1
(g5
S'\xcf\xb1\xf4\x04\x00\x00\x00\x00'
p659
tp660
Rp661
(lp662
S'C:\\Users\\Sarah\\Documents\\Personal Content\\Lab_study_data\\parsed log data\\parsed_7a95ceca-40b6-4d54-99f4-6bec8f161524\\dream_table_capacitor-lab-basics_83145167_2017-01-17_15.22.52.txt'
p663
asg1
(g5
S'\xd0%\xf9\x00\x00\x00\x00\x00'
p664
tp665
Rp666
(lp667
S'C:\\Users\\Sarah\\Documents\\Personal Content\\Lab_study_data\\parsed log data\\parsed_7a95ceca-40b6-4d54-99f4-6bec8f161524\\dream_table_capacitor-lab-basics_16328144_2017-03-23_14.25.17.txt'
p668
asg1
(g5
S'\xd1\x0f\x0b\x01\x00\x00\x00\x00'
p669
tp670
Rp671
(lp672
S'C:\\Users\\Sarah\\Documents\\Personal Content\\Lab_study_data\\parsed log data\\parsed_7a95ceca-40b6-4d54-99f4-6bec8f161524\\dream_table_capacitor-lab-basics_17502161_2017-01-19_14.21.50.txt'
p673
asg1
(g5
S'\xd3\xfb\xa8\x03\x00\x00\x00\x00'
p674
tp675
Rp676
(lp677
S'C:\\Users\\Sarah\\Documents\\Personal Content\\Lab_study_data\\parsed log data\\parsed_7a95ceca-40b6-4d54-99f4-6bec8f161524\\dream_table_capacitor-lab-basics_61406163_2017-01-17_15.22.50.txt'
p678
asg1
(g5
S'\xd7c\xfd\x00\x00\x00\x00\x00'
p679
tp680
Rp681
(lp682
S'C:\\Users\\Sarah\\Documents\\Personal Content\\Lab_study_data\\parsed log data\\parsed_7a95ceca-40b6-4d54-99f4-6bec8f161524\\dream_table_capacitor-lab-basics_16606167_2017-03-20_16.24.12.txt'
p683
asg1
(g5
S'\xd8;\xda\x00\x00\x00\x00\x00'
p684
tp685
Rp686
(lp687
S'C:\\Users\\Sarah\\Documents\\Personal Content\\Lab_study_data\\parsed log data\\parsed_7a95ceca-40b6-4d54-99f4-6bec8f161524\\dream_table_capacitor-lab-basics_14302168_2017-01-20_16.23.20.txt'
p688
asg1
(g5
S'\xdb\xb7\xad\x00\x00\x00\x00\x00'
p689
tp690
Rp691
(lp692
S'C:\\Users\\Sarah\\Documents\\Personal Content\\Lab_study_data\\parsed log data\\parsed_7a95ceca-40b6-4d54-99f4-6bec8f161524\\dream_table_capacitor-lab-basics_11384795_2017-03-20_15.32.50.txt'
p693
asg1
(g5
S'\xdf7\xf6\x00\x00\x00\x00\x00'
p694
tp695
Rp696
(lp697
S'C:\\Users\\Sarah\\Documents\\Personal Content\\Lab_study_data\\parsed log data\\parsed_7a95ceca-40b6-4d54-99f4-6bec8f161524\\dream_table_capacitor-lab-basics_16136159_2017-03-20_16.24.32.txt'
p698
asg1
(g5
S'\xe1s\xec\x00\x00\x00\x00\x00'
p699
tp700
Rp701
(lp702
S'C:\\Users\\Sarah\\Documents\\Personal Content\\Lab_study_data\\parsed log data\\parsed_7a95ceca-40b6-4d54-99f4-6bec8f161524\\dream_table_capacitor-lab-basics_15496161_2017-03-20_15.32.52.txt'
p703
asg1
(g5
S'\xe2\xcd\xa5\x00\x00\x00\x00\x00'
p704
tp705
Rp706
(lp707
S'C:\\Users\\Sarah\\Documents\\Personal Content\\Lab_study_data\\parsed log data\\parsed_7a95ceca-40b6-4d54-99f4-6bec8f161524\\dream_table_capacitor-lab-basics_10866146_2017-01-20_11.22.41.txt'
p708
aS'C:\\Users\\Sarah\\Documents\\Personal Content\\Lab_study_data\\parsed log data\\parsed_7a95ceca-40b6-4d54-99f4-6bec8f161524\\dream_table_capacitor-lab-basics_10866146_2017-01-20_11.36.03.txt'
p709
asg1
(g5
S'\xe7\x0f\xb7\x00\x00\x00\x00\x00'
p710
tp711
Rp712
(lp713
S'C:\\Users\\Sarah\\Documents\\Personal Content\\Lab_study_data\\parsed log data\\parsed_7a95ceca-40b6-4d54-99f4-6bec8f161524\\dream_table_capacitor-lab-basics_11997159_2017-01-19_10.24.20.txt'
p714
asg1
(g5
S'\xe8\xf7\xd6\x00\x00\x00\x00\x00'
p715
tp716
Rp717
(lp718
S'C:\\Users\\Sarah\\Documents\\Personal Content\\Lab_study_data\\parsed log data\\parsed_7a95ceca-40b6-4d54-99f4-6bec8f161524\\dream_table_capacitor-lab-basics_14088168_2017-03-20_15.32.56.txt'
p719
asg1
(g5
S"\xed'0\x01\x00\x00\x00\x00"
p720
tp721
Rp722
(lp723
S'C:\\Users\\Sarah\\Documents\\Personal Content\\Lab_study_data\\parsed log data\\parsed_7a95ceca-40b6-4d54-99f4-6bec8f161524\\dream_table_capacitor-lab-basics_19933165_2017-01-20_15.25.05.txt'
p724
asg1
(g5
S'\xefU\xd5\x00\x00\x00\x00\x00'
p725
tp726
Rp727
(lp728
S'C:\\Users\\Sarah\\Documents\\Personal Content\\Lab_study_data\\parsed log data\\parsed_7a95ceca-40b6-4d54-99f4-6bec8f161524\\dream_table_capacitor-lab-basics_13981167_2017-01-19_13.26.18.txt'
p729
asg1
(g5
S'\xf5\xdf\x1f\x01\x00\x00\x00\x00'
p730
tp731
Rp732
(lp733
S'C:\\Users\\Sarah\\Documents\\Personal Content\\Lab_study_data\\parsed log data\\parsed_7a95ceca-40b6-4d54-99f4-6bec8f161524\\dream_table_capacitor-lab-basics_18866165_2017-03-20_16.24.18.txt'
p734
asg1
(g5
S'\xf9\xa7\xd5\x00\x00\x00\x00\x00'
p735
tp736
Rp737
(lp738
S'C:\\Users\\Sarah\\Documents\\Personal Content\\Lab_study_data\\parsed log data\\parsed_7a95ceca-40b6-4d54-99f4-6bec8f161524\\dream_table_capacitor-lab-basics_14002169_2017-01-20_12.18.25.txt'
p739
asg1
(g5
S'\xfbO\x9e\x00\x00\x00\x00\x00'
p740
tp741
Rp742
(lp743
S'C:\\Users\\Sarah\\Documents\\Personal Content\\Lab_study_data\\parsed log data\\parsed_7a95ceca-40b6-4d54-99f4-6bec8f161524\\dream_table_capacitor-lab-basics_10375163_2017-01-17_15.22.52.txt'
p744
asg1
(g5
S'\xaa\xb8\xe9\x00\x00\x00\x00\x00'
p745
tp746
Rp747
(lp748
S'C:\\Users\\Sarah\\Documents\\Personal Content\\Lab_study_data\\parsed log data\\parsed_7a95ceca-40b6-4d54-99f4-6bec8f161524\\dream_table_capacitor-lab-basics_15317162_2017-01-23_16.21.17.txt'
p749
as.